; Function Attrs: mustprogress uwtable
define hidden void @_ZN5ceres8internal10CudaVector17DestroyDescriptorEv(ptr nocapture noundef nonnull align 8 dereferenceable(48) %0) local_unnamed_addr #0 align 2 personality ptr @__gxx_personality_v0 {
  %2 = alloca %"class.google::base::CheckOpMessageBuilder", align 8
  %3 = alloca %"struct.google::CheckOpString", align 8
  %4 = alloca %"class.google::LogMessageFatal", align 8
  %5 = getelementptr inbounds i8, ptr %0, i64 40
  %6 = load ptr, ptr %5, align 8
  %.not = icmp eq ptr %6, null
  br i1 %.not, label %24, label %7

7:                                                ; preds = %1
  %8 = tail call i32 @cusparseDestroyDnVec(ptr noundef nonnull %6)
  %9 = icmp eq i32 %8, 0
  br i1 %9, label %_ZN6google12Check_EQImplI16cusparseStatus_tS1_EEPNSt7__cxx1112basic_stringIcSt11char_traitsIcESaIcEEERKT_RKT0_PKc.exit.thread, label %10

10:                                               ; preds = %7
  call void @llvm.lifetime.start.p0(i64 8, ptr nonnull %2)
  call void @_ZN6google4base21CheckOpMessageBuilderC1EPKc(ptr noundef nonnull align 8 dereferenceable(8) %2, ptr noundef nonnull @.str.5)
  %11 = load ptr, ptr %2, align 8
  %12 = invoke noundef nonnull align 8 dereferenceable(8) ptr @_ZNSolsEi(ptr noundef nonnull align 8 dereferenceable(8) %11, i32 noundef %8)
          to label %_ZN6google22MakeCheckOpValueStringI16cusparseStatus_tEEvPSoRKT_.exit.i.i unwind label %17

_ZN6google22MakeCheckOpValueStringI16cusparseStatus_tEEvPSoRKT_.exit.i.i: ; preds = %10
  %13 = invoke noundef ptr @_ZN6google4base21CheckOpMessageBuilder7ForVar2Ev(ptr noundef nonnull align 8 dereferenceable(8) %2)
          to label %14 unwind label %17

14:                                               ; preds = %_ZN6google22MakeCheckOpValueStringI16cusparseStatus_tEEvPSoRKT_.exit.i.i
  %15 = invoke noundef nonnull align 8 dereferenceable(8) ptr @_ZNSolsEi(ptr noundef nonnull align 8 dereferenceable(8) %13, i32 noundef 0)
          to label %_ZN6google22MakeCheckOpValueStringI16cusparseStatus_tEEvPSoRKT_.exit4.i.i unwind label %17

_ZN6google22MakeCheckOpValueStringI16cusparseStatus_tEEvPSoRKT_.exit4.i.i: ; preds = %14
  %16 = invoke noundef ptr @_ZN6google4base21CheckOpMessageBuilder9NewStringB5cxx11Ev(ptr noundef nonnull align 8 dereferenceable(8) %2)
          to label %_ZN6google12Check_EQImplI16cusparseStatus_tS1_EEPNSt7__cxx1112basic_stringIcSt11char_traitsIcESaIcEEERKT_RKT0_PKc.exit unwind label %17

17:                                               ; preds = %_ZN6google22MakeCheckOpValueStringI16cusparseStatus_tEEvPSoRKT_.exit4.i.i, %14, %_ZN6google22MakeCheckOpValueStringI16cusparseStatus_tEEvPSoRKT_.exit.i.i, %10
  %18 = landingpad { ptr, i32 }
          cleanup
  call void @_ZN6google4base21CheckOpMessageBuilderD1Ev(ptr noundef nonnull align 8 dereferenceable(8) %2) #11
  resume { ptr, i32 } %18

_ZN6google12Check_EQImplI16cusparseStatus_tS1_EEPNSt7__cxx1112basic_stringIcSt11char_traitsIcESaIcEEERKT_RKT0_PKc.exit: ; preds = %_ZN6google22MakeCheckOpValueStringI16cusparseStatus_tEEvPSoRKT_.exit4.i.i
  call void @_ZN6google4base21CheckOpMessageBuilderD1Ev(ptr noundef nonnull align 8 dereferenceable(8) %2) #11
  call void @llvm.lifetime.end.p0(i64 8, ptr nonnull %2)
  store ptr %16, ptr %3, align 8
  %.not5 = icmp eq ptr %16, null
  br i1 %.not5, label %_ZN6google12Check_EQImplI16cusparseStatus_tS1_EEPNSt7__cxx1112basic_stringIcSt11char_traitsIcESaIcEEERKT_RKT0_PKc.exit.thread, label %19

19:                                               ; preds = %_ZN6google12Check_EQImplI16cusparseStatus_tS1_EEPNSt7__cxx1112basic_stringIcSt11char_traitsIcESaIcEEERKT_RKT0_PKc.exit
  call void @_ZN6google15LogMessageFatalC1EPKciRKNS_13CheckOpStringE(ptr noundef nonnull align 8 dereferenceable(96) %4, ptr noundef nonnull @.str.3, i32 noundef 79, ptr noundef nonnull align 8 dereferenceable(8) %3)
  %20 = invoke noundef nonnull align 8 dereferenceable(8) ptr @_ZN6google10LogMessage6streamEv(ptr noundef nonnull align 8 dereferenceable(96) %4)
          to label %21 unwind label %22

21:                                               ; preds = %19
  call void @_ZN6google15LogMessageFatalD1Ev(ptr noundef nonnull align 8 dereferenceable(96) %4) #12
  unreachable

22:                                               ; preds = %19
  %23 = landingpad { ptr, i32 }
          cleanup
  call void @_ZN6google15LogMessageFatalD1Ev(ptr noundef nonnull align 8 dereferenceable(96) %4) #12
  unreachable

_ZN6google12Check_EQImplI16cusparseStatus_tS1_EEPNSt7__cxx1112basic_stringIcSt11char_traitsIcESaIcEEERKT_RKT0_PKc.exit.thread: ; preds = %7, %_ZN6google12Check_EQImplI16cusparseStatus_tS1_EEPNSt7__cxx1112basic_stringIcSt11char_traitsIcESaIcEEERKT_RKT0_PKc.exit
  store ptr null, ptr %5, align 8
  br label %24

24:                                               ; preds = %_ZN6google12Check_EQImplI16cusparseStatus_tS1_EEPNSt7__cxx1112basic_stringIcSt11char_traitsIcESaIcEEERKT_RKT0_PKc.exit.thread, %1
  ret void
}